; Function Attrs: mustprogress uwtable
define hidden void @_ZN4cvc58internal19SharedTermsDatabase22addEqualityToPropagateENS0_12NodeTemplateILb0EEE(ptr noundef nonnull align 8 dereferenceable(592) %this, ptr nocapture noundef readonly %equality) local_unnamed_addr #3 align 2 personality ptr @__gxx_personality_v0 {
entry:
  %ref.tmp.i = alloca i8, align 1
  %ref.tmp = alloca %"class.cvc5::internal::NodeTemplate", align 8
  %agg.tmp = alloca %"class.cvc5::internal::NodeTemplate.571", align 8
  %agg.tmp5 = alloca %"class.cvc5::internal::NodeTemplate.571", align 8
  %d_registeredEqualities = getelementptr inbounds i8, ptr %this, i64 400
  %0 = load ptr, ptr %equality, align 8
  store ptr %0, ptr %ref.tmp, align 8
  %bf.load.i.i = load i64, ptr %0, align 8
  %bf.lshr.i.i = lshr i64 %bf.load.i.i, 40
  %1 = trunc i64 %bf.lshr.i.i to i32
  %bf.cast.i.i = and i32 %1, 1048575
  %cmp.i.i = icmp ult i32 %bf.cast.i.i, 1048574
  br i1 %cmp.i.i, label %if.then.i.i, label %if.else.i.i

if.then.i.i:                                      ; preds = %entry
  %bf.value.i.i = add i64 %bf.load.i.i, 1099511627776
  %bf.shl.i.i = and i64 %bf.value.i.i, 1152920405095219200
  %bf.clear7.i.i = and i64 %bf.load.i.i, -1152920405095219201
  %bf.set.i.i = or disjoint i64 %bf.shl.i.i, %bf.clear7.i.i
  store i64 %bf.set.i.i, ptr %0, align 8
  br label %_ZN4cvc58internal12NodeTemplateILb1EEC2ERKNS1_ILb0EEE.exit

if.else.i.i:                                      ; preds = %entry
  %cmp12.i.i = icmp eq i32 %bf.cast.i.i, 1048574
  br i1 %cmp12.i.i, label %if.then13.i.i, label %_ZN4cvc58internal12NodeTemplateILb1EEC2ERKNS1_ILb0EEE.exit

if.then13.i.i:                                    ; preds = %if.else.i.i
  %bf.set23.i.i = or i64 %bf.load.i.i, 1152920405095219200
  store i64 %bf.set23.i.i, ptr %0, align 8
  tail call void @_ZN4cvc58internal4expr9NodeValue20markRefCountMaxedOutEv(ptr noundef nonnull align 8 dereferenceable(16) %0)
  br label %_ZN4cvc58internal12NodeTemplateILb1EEC2ERKNS1_ILb0EEE.exit

_ZN4cvc58internal12NodeTemplateILb1EEC2ERKNS1_ILb0EEE.exit: ; preds = %if.then.i.i, %if.else.i.i, %if.then13.i.i
  call void @llvm.lifetime.start.p0(i64 1, ptr nonnull %ref.tmp.i)
  store i8 1, ptr %ref.tmp.i, align 1
  %call.i2 = invoke noundef zeroext i1 @_ZN4cvc57context15CDInsertHashMapINS_8internal12NodeTemplateILb1EEEbSt4hashIS4_EE11insert_safeERKS4_RKb(ptr noundef nonnull align 8 dereferenceable(56) %d_registeredEqualities, ptr noundef nonnull align 8 dereferenceable(8) %ref.tmp, ptr noundef nonnull align 1 dereferenceable(1) %ref.tmp.i)
          to label %invoke.cont unwind label %lpad

invoke.cont:                                      ; preds = %_ZN4cvc58internal12NodeTemplateILb1EEC2ERKNS1_ILb0EEE.exit
  call void @llvm.lifetime.end.p0(i64 1, ptr nonnull %ref.tmp.i)
  %2 = load ptr, ptr %ref.tmp, align 8
  %bf.load.i.i3 = load i64, ptr %2, align 8
  %3 = and i64 %bf.load.i.i3, 1152920405095219200
  %cmp.not.i.i = icmp eq i64 %3, 1152920405095219200
  br i1 %cmp.not.i.i, label %_ZN4cvc58internal12NodeTemplateILb1EED2Ev.exit, label %if.then.i.i4

if.then.i.i4:                                     ; preds = %invoke.cont
  %bf.value.i.i5 = add i64 %bf.load.i.i3, 1152920405095219200
  %bf.shl.i.i6 = and i64 %bf.value.i.i5, 1152920405095219200
  %bf.clear7.i.i7 = and i64 %bf.load.i.i3, -1152920405095219201
  %bf.set.i.i8 = or disjoint i64 %bf.shl.i.i6, %bf.clear7.i.i7
  store i64 %bf.set.i.i8, ptr %2, align 8
  %cmp12.i.i9 = icmp eq i64 %bf.shl.i.i6, 0
  br i1 %cmp12.i.i9, label %if.then13.i.i10, label %_ZN4cvc58internal12NodeTemplateILb1EED2Ev.exit

if.then13.i.i10:                                  ; preds = %if.then.i.i4
  invoke void @_ZN4cvc58internal4expr9NodeValue15markForDeletionEv(ptr noundef nonnull align 8 dereferenceable(16) %2)
          to label %_ZN4cvc58internal12NodeTemplateILb1EED2Ev.exit unwind label %terminate.lpad.i

terminate.lpad.i:                                 ; preds = %if.then13.i.i10
  %4 = landingpad { ptr, i32 }
          catch ptr null
  %5 = extractvalue { ptr, i32 } %4, 0
  call void @__clang_call_terminate(ptr %5) #23
  unreachable

_ZN4cvc58internal12NodeTemplateILb1EED2Ev.exit:   ; preds = %invoke.cont, %if.then.i.i4, %if.then13.i.i10
  %d_theoryEngine = getelementptr inbounds i8, ptr %this, i64 472
  %6 = load ptr, ptr %d_theoryEngine, align 8
  %7 = load ptr, ptr %equality, align 8
  store ptr %7, ptr %agg.tmp, align 8
  %call4 = call noundef zeroext i1 @_ZNK4cvc58internal12TheoryEngine11hasSatValueENS0_12NodeTemplateILb0EEE(ptr noundef nonnull align 8 dereferenceable(1448) %6, ptr noundef nonnull %agg.tmp)
  br i1 %call4, label %return, label %if.end

lpad:                                             ; preds = %_ZN4cvc58internal12NodeTemplateILb1EEC2ERKNS1_ILb0EEE.exit
  %8 = landingpad { ptr, i32 }
          cleanup
  call void @_ZN4cvc58internal12NodeTemplateILb1EED2Ev(ptr noundef nonnull align 8 dereferenceable(8) %ref.tmp) #20
  resume { ptr, i32 } %8

if.end:                                           ; preds = %_ZN4cvc58internal12NodeTemplateILb1EED2Ev.exit
  %d_equalityEngine = getelementptr inbounds i8, ptr %this, i64 552
  %9 = load ptr, ptr %d_equalityEngine, align 8
  %10 = load ptr, ptr %equality, align 8
  store ptr %10, ptr %agg.tmp5, align 8
  call void @_ZN4cvc58internal6theory2eq14EqualityEngine19addTriggerPredicateENS0_12NodeTemplateILb0EEE(ptr noundef nonnull align 8 dereferenceable(1784) %9, ptr noundef nonnull %agg.tmp5)
  call void @_ZN4cvc58internal19SharedTermsDatabase16checkForConflictEv(ptr noundef nonnull align 8 dereferenceable(592) %this)
  br label %return

return:                                           ; preds = %_ZN4cvc58internal12NodeTemplateILb1EED2Ev.exit, %if.end
  ret void
}